(lp1
S'http://www.indeed.com/rc/clk?jk=d5401990d4eb9ddf'
p2
aS'http://www.indeed.com/rc/clk?jk=8480a53425458e0b'
p3
aS'http://www.indeed.com/rc/clk?jk=6e3ba48ad08140b3'
p4
aS'http://www.indeed.com/rc/clk?jk=1c8a8b97175b214b'
p5
aS'http://www.indeed.com/rc/clk?jk=136ba4db051002ae'
p6
aS'http://www.indeed.com/rc/clk?jk=744d2b166082e43c'
p7
aS'http://www.indeed.com/rc/clk?jk=b96e8049255fb8bc'
p8
aS'http://www.indeed.com/rc/clk?jk=9c215232eede19bd'
p9
aS'http://www.indeed.com/rc/clk?jk=6e2040a06e0304ed'
p10
aS'http://www.indeed.com/rc/clk?jk=a67932f350d49253'
p11
aS'http://www.indeed.com/rc/clk?jk=ea412de7ba4a8e10'
p12
aS'http://www.indeed.com/rc/clk?jk=5723f91a61f4924d'
p13
aS'http://www.indeed.com/rc/clk?jk=a0a2ad512d4079d0'
p14
aS'http://www.indeed.com/rc/clk?jk=7e325f9e78c1ace2'
p15
aS'http://www.indeed.com/rc/clk?jk=67b22fea0469a8ff'
p16
aS'http://www.indeed.com/rc/clk?jk=82a8f192001df0e6'
p17
aS'http://www.indeed.com/rc/clk?jk=4b5b1ad807f5c7ad'
p18
aS'http://www.indeed.com/rc/clk?jk=df3f812e9a0a3ad4'
p19
aS'http://www.indeed.com/rc/clk?jk=5bfc93e0272ce52e'
p20
aS'http://www.indeed.com/rc/clk?jk=eb965d711de37066'
p21
aS'http://www.indeed.com/rc/clk?jk=60351a8c21c7ea69'
p22
aS'http://www.indeed.com/rc/clk?jk=d51df8eb2cae1e6b'
p23
aS'http://www.indeed.com/rc/clk?jk=a1875878669d82bb'
p24
aS'http://www.indeed.com/rc/clk?jk=5f2aceb2fda525a1'
p25
aS'http://www.indeed.com/rc/clk?jk=1bcf0b3d646b66ff'
p26
aS'http://www.indeed.com/rc/clk?jk=b389f44c289f7364'
p27
aS'http://www.indeed.com/rc/clk?jk=aa26c7d27e3afdb2'
p28
aS'http://www.indeed.com/rc/clk?jk=eb965d711de37066'
p29
aS'http://www.indeed.com/rc/clk?jk=60351a8c21c7ea69'
p30
aS'http://www.indeed.com/rc/clk?jk=740a131bbb667059'
p31
aS'http://www.indeed.com/rc/clk?jk=a1875878669d82bb'
p32
aS'http://www.indeed.com/rc/clk?jk=c85ad9d2230f842f'
p33
aS'http://www.indeed.com/rc/clk?jk=5f2aceb2fda525a1'
p34
aS'http://www.indeed.com/rc/clk?jk=1bcf0b3d646b66ff'
p35
aS'http://www.indeed.com/rc/clk?jk=d51df8eb2cae1e6b'
p36
aS'http://www.indeed.com/rc/clk?jk=b389f44c289f7364'
p37
aS'http://www.indeed.com/rc/clk?jk=61159435cfc636ae'
p38
aS'http://www.indeed.com/rc/clk?jk=5ef75d9fe93f1be1'
p39
aS'http://www.indeed.com/rc/clk?jk=686f3c1c2bcb28cf'
p40
aS'http://www.indeed.com/rc/clk?jk=cdf364721a98fa8d'
p41
aS'http://www.indeed.com/rc/clk?jk=d13d72bfc51978ce'
p42
aS'http://www.indeed.com/rc/clk?jk=e2afd10f80b74a68'
p43
aS'http://www.indeed.com/rc/clk?jk=05c98c18ca3355de'
p44
aS'http://www.indeed.com/rc/clk?jk=478a6d0efaaf97f6'
p45
aS'http://www.indeed.com/rc/clk?jk=f7ad80c84350f7c7'
p46
aS'http://www.indeed.com/rc/clk?jk=8536670f85856a09'
p47
aS'http://www.indeed.com/rc/clk?jk=cbb2b88901e420b5'
p48
aS'http://www.indeed.com/rc/clk?jk=32c80238ee3731a3'
p49
aS'http://www.indeed.com/rc/clk?jk=16aef383a43e8941'
p50
aS'http://www.indeed.com/rc/clk?jk=9efa5ee1a39d4b95'
p51
aS'http://www.indeed.com/rc/clk?jk=4e4185ef2eea5ca8'
p52
aS'http://www.indeed.com/rc/clk?jk=5ef75d9fe93f1be1'
p53
aS'http://www.indeed.com/rc/clk?jk=f885f89c9dfa68eb'
p54
aS'http://www.indeed.com/rc/clk?jk=d36adf11e3e115ea'
p55
aS'http://www.indeed.com/rc/clk?jk=5f7edd5ad6bdaa2e'
p56
aS'http://www.indeed.com/rc/clk?jk=8536670f85856a09'
p57
aS'http://www.indeed.com/rc/clk?jk=cbb2b88901e420b5'
p58
aS'http://www.indeed.com/rc/clk?jk=32c80238ee3731a3'
p59
aS'http://www.indeed.com/rc/clk?jk=7580f3b4cebf67de'
p60
aS'http://www.indeed.com/rc/clk?jk=16aef383a43e8941'
p61
aS'http://www.indeed.com/rc/clk?jk=9efa5ee1a39d4b95'
p62
aS'http://www.indeed.com/rc/clk?jk=4e4185ef2eea5ca8'
p63
aS'http://www.indeed.com/rc/clk?jk=f885f89c9dfa68eb'
p64
aS'http://www.indeed.com/rc/clk?jk=59e9ece9a22a3d60'
p65
aS'http://www.indeed.com/rc/clk?jk=77a0248097cfc635'
p66
aS'http://www.indeed.com/rc/clk?jk=2259de2036065f73'
p67
aS'http://www.indeed.com/rc/clk?jk=4c1a428bfb229965'
p68
aS'http://www.indeed.com/rc/clk?jk=47c860ecc036bffc'
p69
aS'http://www.indeed.com/rc/clk?jk=c6f0d19ba38c1594'
p70
aS'http://www.indeed.com/rc/clk?jk=00cdead1021f67f6'
p71
aS'http://www.indeed.com/rc/clk?jk=214377b6840f2508'
p72
aS'http://www.indeed.com/rc/clk?jk=67f793694b639894'
p73
aS'http://www.indeed.com/rc/clk?jk=4c1a428bfb229965'
p74
aS'http://www.indeed.com/rc/clk?jk=214377b6840f2508'
p75
aS'http://www.indeed.com/rc/clk?jk=dacb95f9f9d8fc7f'
p76
aS'http://www.indeed.com/rc/clk?jk=f11cf2ccb645d32f'
p77
aS'http://www.indeed.com/rc/clk?jk=7a083d966238348e'
p78
aS'http://www.indeed.com/rc/clk?jk=682a655d981011f6'
p79
aS'http://www.indeed.com/rc/clk?jk=977dc72a3b3403d7'
p80
aS'http://www.indeed.com/rc/clk?jk=26c35c120a341f5e'
p81
aS'http://www.indeed.com/rc/clk?jk=81928da072619ed2'
p82
aS'http://www.indeed.com/rc/clk?jk=0ef2719b7d50258b'
p83
aS'http://www.indeed.com/rc/clk?jk=0d90fd31b30efb0c'
p84
aS'http://www.indeed.com/rc/clk?jk=296cbeb4fda15aee'
p85
aS'http://www.indeed.com/rc/clk?jk=3e3034406d16a8cd'
p86
aS'http://www.indeed.com/rc/clk?jk=c6578b7152656c77'
p87
aS'http://www.indeed.com/rc/clk?jk=0fc2530eb3dc4fad'
p88
aS'http://www.indeed.com/rc/clk?jk=c85ad9d2230f842f'
p89
aS'http://www.indeed.com/rc/clk?jk=ff0ee4dbbaf81bde'
p90
aS'http://www.indeed.com/rc/clk?jk=018f5fa6050745e5'
p91
aS'http://www.indeed.com/rc/clk?jk=1f681a41312bb668'
p92
aS'http://www.indeed.com/rc/clk?jk=d2bb45c447d9e4ed'
p93
aS'http://www.indeed.com/rc/clk?jk=74d9eb1a3165867c'
p94
aS'http://www.indeed.com/rc/clk?jk=3e5db43c5e42a909'
p95
aS'http://www.indeed.com/rc/clk?jk=aaffe9d79660fb57'
p96
aS'http://www.indeed.com/rc/clk?jk=72c44aa20d39010a'
p97
aS'http://www.indeed.com/rc/clk?jk=e33aeafb3d13b5b5'
p98
aS'http://www.indeed.com/rc/clk?jk=2514962f1411a135'
p99
aS'http://www.indeed.com/rc/clk?jk=11d43607a57e8d82'
p100
aS'http://www.indeed.com/rc/clk?jk=16c90715bf84d3c0'
p101
aS'http://www.indeed.com/rc/clk?jk=93e2819972340a99'
p102
aS'http://www.indeed.com/rc/clk?jk=bdd231e5478aa5a3'
p103
aS'http://www.indeed.com/rc/clk?jk=5470bf8a87519c3d'
p104
aS'http://www.indeed.com/rc/clk?jk=4350d3eaca1309a3'
p105
aS'http://www.indeed.com/rc/clk?jk=54731eca00784e03'
p106
aS'http://www.indeed.com/rc/clk?jk=3e2fdeb97a866458'
p107
aS'http://www.indeed.com/rc/clk?jk=38ce055b65bc7e7a'
p108
aS'http://www.indeed.com/rc/clk?jk=8f1e4ea15aab4cb3'
p109
aS'http://www.indeed.com/rc/clk?jk=3e2fdeb97a866458'
p110
aS'http://www.indeed.com/rc/clk?jk=38ce055b65bc7e7a'
p111
aS'http://www.indeed.com/rc/clk?jk=6fe2b89aea1e759f'
p112
aS'http://www.indeed.com/rc/clk?jk=fc4c4b6d3e5c2d7b'
p113
aS'http://www.indeed.com/rc/clk?jk=740a131bbb667059'
p114
aS'http://www.indeed.com/rc/clk?jk=5078d5696873f58e'
p115
aS'http://www.indeed.com/rc/clk?jk=0be47f2da5e26bd1'
p116
aS'http://www.indeed.com/rc/clk?jk=a58ab63758a0e461'
p117
aS'http://www.indeed.com/rc/clk?jk=631cc32d323dede8'
p118
aS'http://www.indeed.com/rc/clk?jk=b36fbd19ddd9c056'
p119
aS'http://www.indeed.com/rc/clk?jk=c0d48bbf786e6d62'
p120
aS'http://www.indeed.com/rc/clk?jk=a612474d2210522b'
p121
aS'http://www.indeed.com/rc/clk?jk=4ff100fc805f99a6'
p122
aS'http://www.indeed.com/rc/clk?jk=763ae6574472c33a'
p123
aS'http://www.indeed.com/rc/clk?jk=e4a878752d8c1435'
p124
aS'http://www.indeed.com/rc/clk?jk=47c44814e30daedf'
p125
aS'http://www.indeed.com/rc/clk?jk=766b460b88cb1d01'
p126
aS'http://www.indeed.com/rc/clk?jk=069c4e83092b1c47'
p127
aS'http://www.indeed.com/rc/clk?jk=59b9bb9b7416068d'
p128
aS'http://www.indeed.com/rc/clk?jk=f573a71b53d3e057'
p129
aS'http://www.indeed.com/rc/clk?jk=eb5074a93aa95ca0'
p130
aS'http://www.indeed.com/rc/clk?jk=8ceddca2c6230d8e'
p131
aS'http://www.indeed.com/rc/clk?jk=4042f1b4e3dd2aa2'
p132
aS'http://www.indeed.com/rc/clk?jk=f921c58dc445023c'
p133
aS'http://www.indeed.com/rc/clk?jk=a1387c612cbe072d'
p134
aS'http://www.indeed.com/rc/clk?jk=f134f59adc89283e'
p135
aS'http://www.indeed.com/rc/clk?jk=40cf26d2b140116f'
p136
aS'http://www.indeed.com/rc/clk?jk=8e8cc2f8e1d2d6a5'
p137
aS'http://www.indeed.com/rc/clk?jk=7ee23b21ff06a699'
p138
aS'http://www.indeed.com/rc/clk?jk=5318f5ba913c5f57'
p139
aS'http://www.indeed.com/rc/clk?jk=f8b3de7762fcf1a6'
p140
aS'http://www.indeed.com/rc/clk?jk=f2d02d75bbc9e8ff'
p141
aS'http://www.indeed.com/rc/clk?jk=427b841e51724d47'
p142
aS'http://www.indeed.com/rc/clk?jk=721b0ab9beecb9dc'
p143
aS'http://www.indeed.com/rc/clk?jk=f29877b6717e49e3'
p144
aS'http://www.indeed.com/rc/clk?jk=e4c8afe8b782e7dc'
p145
aS'http://www.indeed.com/rc/clk?jk=f6a109eb0880f415'
p146
aS'http://www.indeed.com/rc/clk?jk=60d3f73c57606d6f'
p147
aS'http://www.indeed.com/rc/clk?jk=46f1b305452fa917'
p148
aS'http://www.indeed.com/rc/clk?jk=721b0ab9beecb9dc'
p149
aS'http://www.indeed.com/rc/clk?jk=38a798e2dc1014d3'
p150
aS'http://www.indeed.com/rc/clk?jk=08d527c149fe97b1'
p151
aS'http://www.indeed.com/rc/clk?jk=4908f34436ed9083'
p152
aS'http://www.indeed.com/rc/clk?jk=b3089329155822cf'
p153
aS'http://www.indeed.com/rc/clk?jk=7aad379b0a6f2eb9'
p154
aS'http://www.indeed.com/rc/clk?jk=9623e448cd51e4bc'
p155
aS'http://www.indeed.com/rc/clk?jk=46f1b305452fa917'
p156
aS'http://www.indeed.com/rc/clk?jk=08d527c149fe97b1'
p157
aS'http://www.indeed.com/rc/clk?jk=4908f34436ed9083'
p158
aS'http://www.indeed.com/rc/clk?jk=38a798e2dc1014d3'
p159
aS'http://www.indeed.com/rc/clk?jk=b3089329155822cf'
p160
aS'http://www.indeed.com/rc/clk?jk=e6b8e345d192573d'
p161
aS'http://www.indeed.com/rc/clk?jk=5c150ea945b85e27'
p162
aS'http://www.indeed.com/rc/clk?jk=c97f34456fd5f919'
p163
aS'http://www.indeed.com/rc/clk?jk=89c5772c79773bd6'
p164
aS'http://www.indeed.com/rc/clk?jk=5aa21dd8c827d542'
p165
aS'http://www.indeed.com/rc/clk?jk=dc4c11b3b9135480'
p166
aS'http://www.indeed.com/rc/clk?jk=dd5bcc529a5e3416'
p167
aS'http://www.indeed.com/rc/clk?jk=f4dd60a1b57d35f6'
p168
aS'http://www.indeed.com/rc/clk?jk=9ff5f6f213cb9e58'
p169
aS'http://www.indeed.com/rc/clk?jk=b270b36812a7236b'
p170
aS'http://www.indeed.com/rc/clk?jk=7da66bdb2ffc76a3'
p171
aS'http://www.indeed.com/rc/clk?jk=454c9b44b511bf83'
p172
aS'http://www.indeed.com/rc/clk?jk=4b0d4b3459d36ce8'
p173
aS'http://www.indeed.com/rc/clk?jk=0984d26f1977e434'
p174
aS'http://www.indeed.com/rc/clk?jk=64e2710264e4dcd9'
p175
aS'http://www.indeed.com/rc/clk?jk=d142b7c24c60fbb1'
p176
aS'http://www.indeed.com/rc/clk?jk=3782524adaf0515e'
p177
aS'http://www.indeed.com/rc/clk?jk=0dd2a670df78c6ad'
p178
aS'http://www.indeed.com/rc/clk?jk=83cbced1c244db03'
p179
aS'http://www.indeed.com/rc/clk?jk=2259de2036065f73'
p180
aS'http://www.indeed.com/rc/clk?jk=1146397dced90dce'
p181
a.